target datalayout = "e-m:e-p270:32:32-p271:32:32-p272:64:64-i64:64-i128:128-f80:128-n8:16:32:64-S128"
target triple = "x86_64-pc-linux-gnu"

%struct.stbtt__hheap = type { ptr, ptr, i32 }
%struct.stbtt__hheap_chunk = type { ptr }

; Function Attrs: nounwind uwtable
define ptr @stbtt__hheap_alloc(ptr noundef %0, i64 noundef %1, ptr noundef %2) #0 {
  %4 = alloca ptr, align 8
  %5 = alloca ptr, align 8
  %6 = alloca i64, align 8
  %7 = alloca ptr, align 8
  %8 = alloca ptr, align 8
  %9 = alloca i32, align 4
  %10 = alloca ptr, align 8
  %11 = alloca i32, align 4
  store ptr %0, ptr %5, align 8, !tbaa !104
  store i64 %1, ptr %6, align 8, !tbaa !17
  store ptr %2, ptr %7, align 8, !tbaa !3
  %12 = load ptr, ptr %5, align 8, !tbaa !104
  %13 = getelementptr inbounds nuw %struct.stbtt__hheap, ptr %12, i32 0, i32 1
  %14 = load ptr, ptr %13, align 8, !tbaa !106
  %15 = icmp ne ptr %14, null
  br i1 %15, label %16, label %25

16:                                               ; preds = %3
  call void @llvm.lifetime.start.p0(i64 8, ptr %8) #8
  %17 = load ptr, ptr %5, align 8, !tbaa !104
  %18 = getelementptr inbounds nuw %struct.stbtt__hheap, ptr %17, i32 0, i32 1
  %19 = load ptr, ptr %18, align 8, !tbaa !106
  store ptr %19, ptr %8, align 8, !tbaa !3
  %20 = load ptr, ptr %8, align 8, !tbaa !3
  %21 = load ptr, ptr %20, align 8, !tbaa !3
  %22 = load ptr, ptr %5, align 8, !tbaa !104
  %23 = getelementptr inbounds nuw %struct.stbtt__hheap, ptr %22, i32 0, i32 1
  store ptr %21, ptr %23, align 8, !tbaa !106
  %24 = load ptr, ptr %8, align 8, !tbaa !3
  store ptr %24, ptr %4, align 8
  call void @llvm.lifetime.end.p0(i64 8, ptr %8) #8
  br label %80

25:                                               ; preds = %3
  %26 = load ptr, ptr %5, align 8, !tbaa !104
  %27 = getelementptr inbounds nuw %struct.stbtt__hheap, ptr %26, i32 0, i32 2
  %28 = load i32, ptr %27, align 8, !tbaa !109
  %29 = icmp eq i32 %28, 0
  br i1 %29, label %30, label %64

30:                                               ; preds = %25
  call void @llvm.lifetime.start.p0(i64 4, ptr %9) #8
  %31 = load i64, ptr %6, align 8, !tbaa !17
  %32 = icmp ult i64 %31, 32
  br i1 %32, label %33, label %34

33:                                               ; preds = %30
  br label %38

34:                                               ; preds = %30
  %35 = load i64, ptr %6, align 8, !tbaa !17
  %36 = icmp ult i64 %35, 128
  %37 = select i1 %36, i32 800, i32 100
  br label %38

38:                                               ; preds = %34, %33
  %39 = phi i32 [ 2000, %33 ], [ %37, %34 ]
  store i32 %39, ptr %9, align 4, !tbaa !14
  call void @llvm.lifetime.start.p0(i64 8, ptr %10) #8
  %40 = load i64, ptr %6, align 8, !tbaa !17
  %41 = load i32, ptr %9, align 4, !tbaa !14
  %42 = sext i32 %41 to i64
  %43 = mul i64 %40, %42
  %44 = add i64 8, %43
  %45 = call noalias ptr @malloc(i64 noundef %44) #9
  store ptr %45, ptr %10, align 8, !tbaa !110
  %46 = load ptr, ptr %10, align 8, !tbaa !110
  %47 = icmp eq ptr %46, null
  br i1 %47, label %48, label %49

48:                                               ; preds = %38
  store ptr null, ptr %4, align 8
  store i32 1, ptr %11, align 4
  br label %61

49:                                               ; preds = %38
  %50 = load ptr, ptr %5, align 8, !tbaa !104
  %51 = getelementptr inbounds nuw %struct.stbtt__hheap, ptr %50, i32 0, i32 0
  %52 = load ptr, ptr %51, align 8, !tbaa !111
  %53 = load ptr, ptr %10, align 8, !tbaa !110
  %54 = getelementptr inbounds nuw %struct.stbtt__hheap_chunk, ptr %53, i32 0, i32 0
  store ptr %52, ptr %54, align 8, !tbaa !112
  %55 = load ptr, ptr %10, align 8, !tbaa !110
  %56 = load ptr, ptr %5, align 8, !tbaa !104
  %57 = getelementptr inbounds nuw %struct.stbtt__hheap, ptr %56, i32 0, i32 0
  store ptr %55, ptr %57, align 8, !tbaa !111
  %58 = load i32, ptr %9, align 4, !tbaa !14
  %59 = load ptr, ptr %5, align 8, !tbaa !104
  %60 = getelementptr inbounds nuw %struct.stbtt__hheap, ptr %59, i32 0, i32 2
  store i32 %58, ptr %60, align 8, !tbaa !109
  store i32 0, ptr %11, align 4
  br label %61

61:                                               ; preds = %49, %48
  call void @llvm.lifetime.end.p0(i64 8, ptr %10) #8
  call void @llvm.lifetime.end.p0(i64 4, ptr %9) #8
  %62 = load i32, ptr %11, align 4
  switch i32 %62, label %82 [
    i32 0, label %63
    i32 1, label %80
  ]

63:                                               ; preds = %61
  br label %64

64:                                               ; preds = %63, %25
  %65 = load ptr, ptr %5, align 8, !tbaa !104
  %66 = getelementptr inbounds nuw %struct.stbtt__hheap, ptr %65, i32 0, i32 2
  %67 = load i32, ptr %66, align 8, !tbaa !109
  %68 = add nsw i32 %67, -1
  store i32 %68, ptr %66, align 8, !tbaa !109
  %69 = load ptr, ptr %5, align 8, !tbaa !104
  %70 = getelementptr inbounds nuw %struct.stbtt__hheap, ptr %69, i32 0, i32 0
  %71 = load ptr, ptr %70, align 8, !tbaa !111
  %72 = getelementptr inbounds nuw i8, ptr %71, i64 8
  %73 = load i64, ptr %6, align 8, !tbaa !17
  %74 = load ptr, ptr %5, align 8, !tbaa !104
  %75 = getelementptr inbounds nuw %struct.stbtt__hheap, ptr %74, i32 0, i32 2
  %76 = load i32, ptr %75, align 8, !tbaa !109
  %77 = sext i32 %76 to i64
  %78 = mul i64 %73, %77
  %79 = getelementptr inbounds nuw i8, ptr %72, i64 %78
  store ptr %79, ptr %4, align 8
  br label %80

80:                                               ; preds = %64, %61, %16
  %81 = load ptr, ptr %4, align 8
  ret ptr %81

82:                                               ; preds = %61
  unreachable
}