; Function Attrs: mustprogress nofree nounwind willreturn uwtable
define ptr @stbtt__hheap_alloc(ptr noundef captures(none) %0, i64 noundef %1, ptr noundef readnone captures(none) %2) local_unnamed_addr #21 {
  %4 = getelementptr inbounds nuw i8, ptr %0, i64 8
  %5 = load ptr, ptr %4, align 8, !tbaa !92
  %.not = icmp eq ptr %5, null
  br i1 %.not, label %8, label %6

6:                                                ; preds = %3
  %7 = load ptr, ptr %5, align 8, !tbaa !43
  store ptr %7, ptr %4, align 8, !tbaa !92
  br label %31

8:                                                ; preds = %3
  %9 = getelementptr inbounds nuw i8, ptr %0, i64 16
  %10 = load i32, ptr %9, align 8, !tbaa !95
  %11 = icmp eq i32 %10, 0
  br i1 %11, label %12, label %._crit_edge

._crit_edge:                                      ; preds = %8
  %.pre = load ptr, ptr %0, align 8, !tbaa !96
  br label %23

12:                                               ; preds = %8
  %13 = icmp ult i64 %1, 32
  %14 = icmp ult i64 %1, 128
  %15 = select i1 %14, i32 800, i32 100
  %16 = select i1 %13, i32 2000, i32 %15
  %17 = zext nneg i32 %16 to i64
  %18 = mul i64 %1, %17
  %19 = add i64 %18, 8
  %20 = tail call noalias ptr @malloc(i64 noundef %19) #33
  %21 = icmp eq ptr %20, null
  br i1 %21, label %31, label %.thread

.thread:                                          ; preds = %12
  %22 = load ptr, ptr %0, align 8, !tbaa !96
  store ptr %22, ptr %20, align 8, !tbaa !97
  store ptr %20, ptr %0, align 8, !tbaa !96
  br label %23

23:                                               ; preds = %._crit_edge, %.thread
  %24 = phi ptr [ %20, %.thread ], [ %.pre, %._crit_edge ]
  %25 = phi i32 [ %16, %.thread ], [ %10, %._crit_edge ]
  %26 = add nsw i32 %25, -1
  store i32 %26, ptr %9, align 8, !tbaa !95
  %27 = getelementptr inbounds nuw i8, ptr %24, i64 8
  %28 = sext i32 %26 to i64
  %29 = mul i64 %1, %28
  %30 = getelementptr inbounds nuw i8, ptr %27, i64 %29
  br label %31

31:                                               ; preds = %12, %23, %6
  %.022 = phi ptr [ %5, %6 ], [ %30, %23 ], [ null, %12 ]
  ret ptr %.022
}